; Function Attrs: nounwind sspstrong uwtable
define internal void @sdhci_sysbus_class_init(ptr noundef %klass, ptr readnone captures(none) %data) #0 {
entry:
  %call.i = tail call ptr @object_class_dynamic_cast_assert(ptr noundef %klass, ptr noundef nonnull @.str.35, ptr noundef nonnull @.str.36, i32 noundef 77, ptr noundef nonnull @__func__.DEVICE_CLASS) #12
  tail call void @device_class_set_props(ptr noundef %call.i, ptr noundef nonnull @sdhci_sysbus_properties) #12
  %realize = getelementptr inbounds nuw i8, ptr %call.i, i64 144
  store ptr @sdhci_sysbus_realize, ptr %realize, align 8
  %unrealize = getelementptr inbounds nuw i8, ptr %call.i, i64 152
  store ptr @sdhci_sysbus_unrealize, ptr %unrealize, align 8
  %call.i.i = tail call ptr @object_class_dynamic_cast_assert(ptr noundef %klass, ptr noundef nonnull @.str.35, ptr noundef nonnull @.str.36, i32 noundef 77, ptr noundef nonnull @__func__.DEVICE_CLASS) #12
  %categories.i = getelementptr inbounds nuw i8, ptr %call.i.i, i64 96
  %0 = load i64, ptr %categories.i, align 8
  %or.i.i = or i64 %0, 4
  store i64 %or.i.i, ptr %categories.i, align 8
  %vmsd.i = getelementptr inbounds nuw i8, ptr %call.i.i, i64 160
  store ptr @sdhci_vmstate, ptr %vmsd.i, align 8
  %reset.i = getelementptr inbounds nuw i8, ptr %call.i.i, i64 136
  store ptr @sdhci_poweron_reset, ptr %reset.i, align 8
  ret void
}